; Function Attrs: nofree nosync nounwind memory(readwrite, inaccessiblemem: none) uwtable
define void @Abc_NtkMaxFlowMarkCut_rec(ptr noundef captures(none) %0) local_unnamed_addr #3 {
  %2 = getelementptr inbounds nuw i8, ptr %0, i64 20
  %3 = load i32, ptr %2, align 4
  %4 = and i32 %3, 16
  %.not = icmp eq i32 %4, 0
  br i1 %.not, label %5, label %.critedge

5:                                                ; preds = %1
  %6 = or disjoint i32 %3, 16
  store i32 %6, ptr %2, align 4
  %7 = getelementptr i8, ptr %0, i64 28
  %.val9 = load i32, ptr %7, align 4
  %8 = icmp sgt i32 %.val9, 0
  br i1 %8, label %.lr.ph, label %.critedge

.lr.ph:                                           ; preds = %5
  %9 = getelementptr i8, ptr %0, i64 32
  br label %10

10:                                               ; preds = %.lr.ph, %10
  %indvars.iv = phi i64 [ 0, %.lr.ph ], [ %indvars.iv.next, %10 ]
  %.val7 = load ptr, ptr %0, align 8
  %.val8 = load ptr, ptr %9, align 8
  %11 = getelementptr i8, ptr %.val7, i64 32
  %.val7.val = load ptr, ptr %11, align 8
  %12 = getelementptr i8, ptr %.val7.val, i64 8
  %.val7.val.val = load ptr, ptr %12, align 8
  %13 = getelementptr inbounds nuw i32, ptr %.val8, i64 %indvars.iv
  %14 = load i32, ptr %13, align 4
  %15 = sext i32 %14 to i64
  %16 = getelementptr inbounds ptr, ptr %.val7.val.val, i64 %15
  %17 = load ptr, ptr %16, align 8
  tail call void @Abc_NtkMaxFlowMarkCut_rec(ptr noundef %17)
  %indvars.iv.next = add nuw nsw i64 %indvars.iv, 1
  %.val = load i32, ptr %7, align 4
  %18 = sext i32 %.val to i64
  %19 = icmp slt i64 %indvars.iv.next, %18
  br i1 %19, label %10, label %.critedge, !llvm.loop !29

.critedge:                                        ; preds = %10, %5, %1
  ret void
}